; Function Attrs: mustprogress uwtable
define hidden noundef ptr @_ZN7datalog23product_relation_plugin24mk_filter_interpreted_fnERKNS_13relation_baseEP3app(ptr nonnull readnone align 8 captures(none) %0, ptr noundef nonnull align 8 dereferenceable(28) %1, ptr noundef %2) unnamed_addr #3 align 2 {
  %4 = tail call noalias noundef ptr @_ZN6memory8allocateEm(i64 noundef 24)
  %5 = tail call ptr @__dynamic_cast(ptr nonnull readonly align 8 dereferenceable(28) %1, ptr nonnull @_ZTIN7datalog13relation_baseE, ptr nonnull @_ZTIN7datalog16product_relationE, i64 0) #26
  %6 = icmp eq ptr %5, null
  br i1 %6, label %7, label %_ZN7datalog23product_relation_plugin3getERKNS_13relation_baseE.exit

7:                                                ; preds = %3
  tail call void @__cxa_bad_cast() #27
  unreachable

_ZN7datalog23product_relation_plugin3getERKNS_13relation_baseE.exit: ; preds = %3
  tail call void @_ZN7datalog23product_relation_plugin21filter_interpreted_fnC2ERKNS_16product_relationEP3app(ptr noundef nonnull align 8 dereferenceable(24) %4, ptr noundef nonnull align 8 dereferenceable(48) %5, ptr noundef %2)
  ret ptr %4
}